; Function Attrs: mustprogress uwtable
define hidden noundef zeroext i1 @_ZN15model_evaluator4evalERK10ref_vectorI4expr11ast_managerER7obj_refIS1_S2_Eb(ptr nocapture noundef nonnull readonly align 8 dereferenceable(8) %this, ptr nocapture noundef nonnull readonly align 8 dereferenceable(16) %ts, ptr nocapture noundef nonnull align 8 dereferenceable(16) %r, i1 noundef zeroext %model_completion) local_unnamed_addr #3 align 2 personality ptr @__gxx_personality_v0 {
entry:
  %tmp = alloca %class.obj_ref, align 8
  %0 = load ptr, ptr %this, align 8
  %m_manager.i.i = getelementptr inbounds i8, ptr %0, i64 8
  %1 = load ptr, ptr %m_manager.i.i, align 8
  store ptr null, ptr %tmp, align 8
  %m_manager.i = getelementptr inbounds i8, ptr %tmp, i64 8
  store ptr %1, ptr %m_manager.i, align 8
  %2 = load ptr, ptr %ts, align 8, !noalias !13
  %m_nodes.i.i = getelementptr inbounds i8, ptr %ts, i64 8
  %3 = load ptr, ptr %m_nodes.i.i, align 8, !noalias !13
  %cmp.i.i.i = icmp eq ptr %3, null
  br i1 %cmp.i.i.i, label %_ZNK15ref_vector_coreI4expr19ref_manager_wrapperIS0_11ast_managerEE4sizeEv.exit.i, label %if.end.i.i.i

if.end.i.i.i:                                     ; preds = %entry
  %arrayidx.i.i.i = getelementptr inbounds i8, ptr %3, i64 -4
  %4 = load i32, ptr %arrayidx.i.i.i, align 4, !noalias !13
  br label %_ZNK15ref_vector_coreI4expr19ref_manager_wrapperIS0_11ast_managerEE4sizeEv.exit.i

_ZNK15ref_vector_coreI4expr19ref_manager_wrapperIS0_11ast_managerEE4sizeEv.exit.i: ; preds = %if.end.i.i.i, %entry
  %retval.0.i.i.i = phi i32 [ %4, %if.end.i.i.i ], [ 0, %entry ]
  %call3.i2 = invoke noundef ptr @_Z6mk_andR11ast_managerjPKP4expr(ptr noundef nonnull align 8 dereferenceable(976) %2, i32 noundef %retval.0.i.i.i, ptr noundef %3)
          to label %call3.i.noexc unwind label %lpad

call3.i.noexc:                                    ; preds = %_ZNK15ref_vector_coreI4expr19ref_manager_wrapperIS0_11ast_managerEE4sizeEv.exit.i
  %tobool.not.i.i.i = icmp eq ptr %call3.i2, null
  br i1 %tobool.not.i.i.i, label %_ZN7obj_refI4expr11ast_managerED2Ev.exit, label %_ZN11ast_manager7inc_refEP3ast.exit.i.i.i

_ZN11ast_manager7inc_refEP3ast.exit.i.i.i:        ; preds = %call3.i.noexc
  %m_ref_count.i.i.i.i.i = getelementptr inbounds i8, ptr %call3.i2, i64 8
  %5 = load i32, ptr %m_ref_count.i.i.i.i.i, align 4, !noalias !13
  %inc.i.i.i.i.i = add i32 %5, 1
  store i32 %inc.i.i.i.i.i, ptr %m_ref_count.i.i.i.i.i, align 4, !noalias !13
  br label %_ZN7obj_refI4expr11ast_managerED2Ev.exit

_ZN7obj_refI4expr11ast_managerED2Ev.exit:         ; preds = %call3.i.noexc, %_ZN11ast_manager7inc_refEP3ast.exit.i.i.i
  store ptr %call3.i2, ptr %tmp, align 8
  %call6 = invoke noundef zeroext i1 @_ZN15model_evaluator4evalEP4exprR7obj_refIS0_11ast_managerEb(ptr noundef nonnull align 8 dereferenceable(8) %this, ptr noundef %call3.i2, ptr noundef nonnull align 8 dereferenceable(16) %r, i1 noundef zeroext %model_completion)
          to label %invoke.cont5 unwind label %lpad

invoke.cont5:                                     ; preds = %_ZN7obj_refI4expr11ast_managerED2Ev.exit
  br i1 %tobool.not.i.i.i, label %_ZN7obj_refI4expr11ast_managerED2Ev.exit16, label %if.then.i.i.i9

if.then.i.i.i9:                                   ; preds = %invoke.cont5
  %m_ref_count.i.i.i.i11 = getelementptr inbounds i8, ptr %call3.i2, i64 8
  %6 = load i32, ptr %m_ref_count.i.i.i.i11, align 4
  %dec.i.i.i.i12 = add i32 %6, -1
  store i32 %dec.i.i.i.i12, ptr %m_ref_count.i.i.i.i11, align 4
  %cmp.i.i.i13 = icmp eq i32 %dec.i.i.i.i12, 0
  br i1 %cmp.i.i.i13, label %if.then2.i.i.i14, label %_ZN7obj_refI4expr11ast_managerED2Ev.exit16

if.then2.i.i.i14:                                 ; preds = %if.then.i.i.i9
  invoke void @_ZN11ast_manager11delete_nodeEP3ast(ptr noundef nonnull align 8 dereferenceable(976) %1, ptr noundef nonnull %call3.i2)
          to label %_ZN7obj_refI4expr11ast_managerED2Ev.exit16 unwind label %terminate.lpad.i15

terminate.lpad.i15:                               ; preds = %if.then2.i.i.i14
  %7 = landingpad { ptr, i32 }
          catch ptr null
  %8 = extractvalue { ptr, i32 } %7, 0
  tail call void @__clang_call_terminate(ptr %8) #19
  unreachable

_ZN7obj_refI4expr11ast_managerED2Ev.exit16:       ; preds = %invoke.cont5, %if.then.i.i.i9, %if.then2.i.i.i14
  ret i1 %call6

lpad:                                             ; preds = %_ZNK15ref_vector_coreI4expr19ref_manager_wrapperIS0_11ast_managerEE4sizeEv.exit.i, %_ZN7obj_refI4expr11ast_managerED2Ev.exit
  %9 = landingpad { ptr, i32 }
          cleanup
  call void @_ZN7obj_refI4expr11ast_managerED2Ev(ptr noundef nonnull align 8 dereferenceable(16) %tmp) #18
  resume { ptr, i32 } %9
}